ccopy_reg
_reconstructor
p1
(clenstools.pipeline.settings
NGenICSettings
p2
c__builtin__
object
p3
NtRp4
(dp5
S'UnitLength_in_cm'
p6
F3.0856779999999998e+21
sS'ShapeGamma'
p7
F0.20999999999999999
sS'WhichSpectrum'
p8
I2
sS'UnitVelocity_in_cm_per_s'
p9
F100000
sS'Redshift'
p10
F100
sS'SphereMode'
p11
I1
sS'_zmaxact'
p12
F1000
sS'_iwmode'
p13
I3
sS'UnitMass_in_g'
p14
F1.9890000000000001e+43
sS'PrimordialIndex'
p15
F1
sS'ReNormalizeInputSpectrum'
p16
I1
sS'InputSpectrum_UnitLength_in_cm'
p17
F3.085678e+24
sS'GlassFile'
p18
S'/global/homes/a/apetri/.local/lib/python2.7/site-packages/lenstools-0.5-py2.7-linux-x86_64.egg/lenstools/data/dummy_glass_little_endian.dat'
p19
sS'NumFilesWrittenInParallel'
p20
I4
sb.