ccopy_reg
_reconstructor
p1
(clenstools.pipeline.settings
PlaneSettings
p2
c__builtin__
object
p3
NtRp4
(dp5
S'format'
p6
S'fits'
p7
sS'last_snapshot'
p8
I61
sS'normals'
p9
(lp10
I0
aI1
aI2
asS'thickness'
p11
cnumpy.core.multiarray
_reconstruct
p12
(castropy.units.quantity
Quantity
p13
(I0
tS'b'
tRp14
((I1
(tcnumpy
dtype
p15
(S'f8'
I0
I1
tRp16
(I3
S'<'
NNNI-1
I-1
I0
tbI00
S'\x00\x00\x00\x00\x00\x00^@'
t(dp17
S'_unit'
p18
g1
(castropy.units.core
PrefixUnit
p19
g3
NtRp20
(dp21
S'_format'
p22
(dp23
sS'_short_names'
p24
(lp25
VMpc
p26
asS'_names'
p27
(lp28
g26
aVmegaparsec
p29
asS'_represents'
p30
g1
(castropy.units.core
CompositeUnit
p31
g3
NtRp32
(dp33
S'_decomposed_cache'
p34
g1
(g31
g3
NtRp35
(dp36
g34
NsS'_powers'
p37
(lp38
I1
asS'_scale'
p39
F3.0856775814671917e+22
sS'_hash'
p40
NsS'_bases'
p41
(lp42
castropy.units.core
_recreate_irreducible_unit
p43
(castropy.units.core
IrreducibleUnit
p44
(lp45
Vm
aVmeter
p46
aI01
tRp47
(dp48
g22
(dp49
sg24
(lp50
Vm
asg27
(lp51
Vm
ag46
asS'__doc__'
p52
Vmeter: base unit of length in SI
p53
sS'_long_names'
p54
(lp55
g46
asbasbsg37
(lp56
I1
asg39
F1000000
sg40
I5922263298416514872
sg41
(lp57
g1
(castropy.units.core
Unit
p58
g3
NtRp59
(dp60
g22
(dp61
sg24
(lp62
Vpc
p63
asg27
(lp64
g63
aVparsec
p65
asg30
g1
(g31
g3
NtRp66
(dp67
g34
g66
sg37
(lp68
I1
asg39
F30856775814671916
sg40
I-1459738009292166718
sg41
(lp69
g47
asbsg52
Vparsec: approximately 3.26 light-years.
p70
sg54
(lp71
g65
asbasbsg52
Vmegaparsec (Mpc)
p72
sg54
(lp73
g29
asbstbsS'cut_points'
p74
g12
(g13
(I0
tS'b'
tRp75
((I1
(I3
tg16
I00
S'\xd7\xa3p=\n\x17N@\x9a\x99\x99\x99\x99\x91f@\x1f\x85\xebQ\xb8\xcer@'
t(dp76
g18
g20
stbsS'plane_resolution'
p77
I4096
sS'override_with_local'
p78
I00
sS'directory_name'
p79
S'Planes'
p80
sS'length_unit'
p81
g20
sS'first_snapshot'
p82
I0
sb.