ccopy_reg
_reconstructor
p1
(clenstools.simulations.gadget2
Gadget2Settings
p2
c__builtin__
object
p3
NtRp4
(dp5
S'SofteningGas'
p6
I0
sS'UnitLength_in_cm'
p7
F3.0856779999999998e+21
sS'DesNumNgb'
p8
I33
sS'SofteningHaloMaxPhys'
p9
F9
sS'TimeMax'
p10
F1
sS'CpuTimeBetRestartFile'
p11
cnumpy.core.multiarray
_reconstruct
p12
(castropy.units.quantity
Quantity
p13
(I0
tS'b'
tRp14
((I1
(tcnumpy
dtype
p15
(S'f8'
I0
I1
tRp16
(I3
S'<'
NNNI-1
I-1
I0
tbI00
S'\x00\x00\x00\x00\x00\x00)@'
t(dp17
S'_unit'
p18
g1
(castropy.units.core
Unit
p19
g3
NtRp20
(dp21
S'_format'
p22
(dp23
sS'_short_names'
p24
(lp25
Vh
asS'_names'
p26
(lp27
Vh
aVhour
p28
aVhr
p29
asS'_represents'
p30
g1
(castropy.units.core
CompositeUnit
p31
g3
NtRp32
(dp33
S'_decomposed_cache'
p34
g32
sS'_powers'
p35
(lp36
I1
asS'_scale'
p37
F3600
sS'_hash'
p38
I-8354024383268252204
sS'_bases'
p39
(lp40
castropy.units.core
_recreate_irreducible_unit
p41
(castropy.units.core
IrreducibleUnit
p42
(lp43
Vs
aVsecond
p44
aI01
tRp45
(dp46
g22
(dp47
sg24
(lp48
Vs
asg26
(lp49
Vs
ag44
asS'__doc__'
p50
Vsecond: base unit of time in SI.
p51
sS'_long_names'
p52
(lp53
g44
asbasbsg50
Vhour (h)
p54
sg52
(lp55
g28
ag29
asbstbsS'EnergyFile'
p56
S'energy.txt'
p57
sS'SofteningHalo'
p58
F9
sS'TreeDomainUpdateFrequency'
p59
F0.025000000000000001
sS'InitCondFile'
p60
S'gadget_ic'
p61
sS'PartAllocFactor'
p62
F1.3
sS'MinSizeTimestep'
p63
F0
sS'NumFilesWrittenInParallel'
p64
I8
sS'MaxSizeTimestep'
p65
F0.02
sS'SofteningStars'
p66
I0
sS'ErrTolTheta'
p67
F0.45000000000000001
sS'TimeOfFirstSnapshot'
p68
I0
sS'TimeLimitCPU'
p69
g12
(g13
(I0
tS'b'
tRp70
((I1
(tg16
I00
S'\x00\x00\x00\x00\x00\x00\xf0?'
t(dp71
g18
g1
(g19
g3
NtRp72
(dp73
g22
(dp74
sg24
(lp75
Vd
asg26
(lp76
Vd
aVday
p77
asg30
g1
(g31
g3
NtRp78
(dp79
g34
g1
(g31
g3
NtRp80
(dp81
g34
Nsg35
(lp82
I1
asg37
F86400
sg38
Nsg39
(lp83
g45
asbsg35
(lp84
I1
asg37
F24
sg38
I8474269870391371934
sg39
(lp85
g20
asbsg50
Vday (d)
p86
sg52
(lp87
g77
asbstbsS'ArtBulkViscConst'
p88
F0.80000000000000004
sS'SofteningStarsMaxPhys'
p89
I0
sS'ICFormat'
p90
I1
sS'CpuFile'
p91
S'cpu.txt'
p92
sS'TypeOfTimestepCriterion'
p93
I0
sS'TypeOfOpeningCriterion'
p94
I1
sS'InitGasTemp'
p95
F1000
sS'BufferSize'
p96
g12
(g13
(I0
tS'b'
tRp97
((I1
(tg16
I00
S'\x00\x00\x00\x00\x00\x004@'
t(dp98
g18
g1
(castropy.units.core
PrefixUnit
p99
g3
NtRp100
(dp101
g22
(dp102
Vvounit
p103
VMbyte
p104
ssg24
(lp105
VMbyte
p106
asg26
(lp107
g106
aVMB
p108
aVmegabyte
p109
asg30
g1
(g31
g3
NtRp110
(dp111
g34
g1
(g31
g3
NtRp112
(dp113
g34
Nsg35
(lp114
I1
asg37
F8000000
sg38
Nsg39
(lp115
g41
(g42
(lp116
Vbit
p117
aVb
ag117
aI01
tRp118
(dp119
g22
(dp120
sg24
(lp121
g117
aVb
asg26
(lp122
g117
aVb
ag117
asg50
Vb (bit)
p123
sg52
(lp124
g117
asbasbsg35
(lp125
I1
asg37
F1000000
sg38
I-1976935134842369269
sg39
(lp126
g1
(g19
g3
NtRp127
(dp128
g22
(dp129
g103
Vbyte
p130
ssg24
(lp131
g130
aVB
asg26
(lp132
g130
aVB
ag130
asg30
g1
(g31
g3
NtRp133
(dp134
g34
g133
sg35
(lp135
I1
asg37
F8
sg38
I9058943602943842114
sg39
(lp136
g118
asbsg50
VB (byte)
p137
sg52
(lp138
g130
asbasbsg50
VMB (Mbyte)
p139
sg52
(lp140
g108
ag109
asbstbsS'SofteningBulge'
p141
I0
sS'GravityConstantInternal'
p142
I0
sS'TimeBetStatistics'
p143
F0.050000000000000003
sS'NumFilesPerSnapshot'
p144
I24
sS'ComovingIntegrationOn'
p145
I1
sS'OutputListFilename'
p146
S'outputs.txt'
p147
sS'UnitVelocity_in_cm_per_s'
p148
F100000
sS'SofteningGasMaxPhys'
p149
I0
sS'SofteningDisk'
p150
I0
sS'CourantFac'
p151
F0.14999999999999999
sS'SofteningDiskMaxPhys'
p152
I0
sS'UnitMass_in_g'
p153
F1.9890000000000001e+43
sS'MinGasHsmlFractional'
p154
F0.25
sS'MaxNumNgbDeviation'
p155
I2
sS'TimeBetSnapshot'
p156
F0.5
sS'RestartFile'
p157
S'restart'
p158
sS'OutputDir'
p159
S'snapshots'
p160
sS'PeriodicBoundariesOn'
p161
I1
sS'ResubmitCommand'
p162
S'my-scriptfile'
p163
sS'SofteningBndryMaxPhys'
p164
I0
sS'SnapshotFileBase'
p165
S'snapshot'
p166
sS'OutputScaleFactor'
p167
g12
(cnumpy
ndarray
p168
(I0
tS'b'
tRp169
(I1
(I62
tg16
I00
S'\nM\x8b\x92r\xe4\xba?\xb0\x1d\t\xdd/\x9b\xbc?\xc7~\x02dz_\xbe?\x06\xcf/\xdf\xa9\x18\xc0?\x91[\x92\xdd^\x08\xc1?\x82?\xd4L\xdd\xfe\xc1?\x08\xd3\xf6{&\xfc\xc2?L\x13\xbc\xf8;\x00\xc4?\x87\\\x1a\x90\x1f\x0b\xc5?\xa2A\xf2n\xd3\x1c\xc6?\xb2\xfe<\nZ5\xc7?l\xf6\x93H\xb6T\xc8?\x00@\xe2}\xebz\xc9?\xcf\xecv\x91\xfd\xa7\xca?\xe4L\x1d\xef\xf0\xdb\xcb?f\x8c@\xaf\xca\x16\xcd?f\xda\x9f\xa2\x90X\xce?\xd4"\xb2wI\xa1\xcf?\xf7\x06\x12Z~x\xd0?C\x878v\xd9#\xd1?%\xb9\xc1\xec\xba\xd2\xd1?H\xec~0(\x85\xd2?\xbc\xd6\xdau\';\xd3?\x8a\xba%\xa8\xbf\xf4\xd3?3\x18\xfe\x8c\xf8\xb1\xd4?\xb8\x1e\xa0\xdf\xdar\xd5?\x81\xdfe^p7\xd6?\xb3\xf9r\xe9\xc3\xff\xd6?\x91Q\'\xa3\xe1\xcb\xd7?\xdak9\xfd\xd6\x9b\xd8?\x01\x9e\xc4\xfe\xb2o\xd9?\xb8\x9e\x99<\x86G\xda?\xe3\xd0\xfc+c#\xdb?{_M&^\x03\xdc?p\x8cQ\xba\x8d\xe7\xdc?\xf1U\xd3\xc6\n\xd0\xdd?\x17\xb3\xd9\xcc\xf0\xbc\xde?^\xf2\xbf\t^\xae\xdf?v\xf8o\xed9R\xe0?\xd4\xae\xc7z\xab\xcf\xe0?\xbbY\xff\xe2\x97O\xe1?$\xe7\x84W\x15\xd2\xe1?*\x01\xc9E<W\xe2?\x92\x100\x81\'\xdf\xe2?\xe0\xec\x1f{\xf4i\xe3?\xa7\xa5R\x97\xc3\xf7\xe3?j\xb0\x96\\\xb8\x88\xe4?\x9f\xf5<\xd7\xf9\x1c\xe5?\'g\x18\xe9\xb2\xb4\xe5?L\x12\xac\xb0\x12P\xe6?\xa3\xc1x\xfaL\xef\xe6?\xacKp\xb9\x9a\x92\xe7?\x10M*\x9d::\xe8?L\x13<\xa5q\xe6\xe8?X\xc1\x11\xe3\x8b\x97\xe9?\xbd:U=\xddM\xea?G;\xc6[\xc2\t\xeb?\xf8\x95\x17\xb9\xa1\xcb\xeb?\x1fo\xa7\xcb\xec\x93\xec?\xd3Y%h!c\xed?\x88\x9b\x1fd\xcb9\xee?\x91v\xb6a\x86\x18\xef?'
tbsS'SofteningBndry'
p170
I0
sS'SnapFormat'
p171
I1
sS'TimingsFile'
p172
S'timings.txt'
p173
sS'ErrTolIntAccuracy'
p174
F0.025000000000000001
sS'OutputListOn'
p175
I1
sS'ErrTolForceAcc'
p176
F0.0050000000000000001
sS'TreeAllocFactor'
p177
F0.69999999999999996
sS'InfoFile'
p178
S'info.txt'
p179
sS'SofteningBulgeMaxPhys'
p180
I0
sS'MaxRMSDisplacementFac'
p181
F0.20000000000000001
sS'MinGasTemp'
p182
F50
sS'ResubmitOn'
p183
I0
sb.