ccopy_reg
_reconstructor
p1
(clenstools.simulations.camb
CAMBSettings
p2
c__builtin__
object
p3
NtRp4
(dp5
S'massive_nu_approx'
p6
I3
sS'fits_filename'
p7
S'scalCls.fits'
p8
sS'nu_mass_eigenstates'
p9
I0
sS'do_nonlinear'
p10
I0
sS'l_sample_boost'
p11
I3
sS'recfast_fudge_he'
p12
F0.85999999999999999
sS'accurate_reionization'
p13
I01
sS'reionization'
p14
I01
sS'transfer_high_precision'
p15
I01
sS'helium_fraction'
p16
F0.23999999999999999
sS'cs2_lam'
p17
I1
sS're_use_optical_depth'
p18
I01
sS'l_accuracy_boost'
p19
I3
sS'transfer_k_per_logint'
p20
I100
sS'total_output_file'
p21
S'totCls.dat'
p22
sS'k_eta_max_scalar'
p23
I16000
sS're_redshift'
p24
I11
sS'do_tensor_neutrinos'
p25
I00
sS'nu_mass_degeneracies'
p26
I0
sS'transfer_kmax'
p27
I1000
sS'cobe_normalize'
p28
I00
sS're_optical_depth'
p29
F0.086999999999999994
sS'scalar_output_file'
p30
S'scalCls.dat'
p31
sS'lensed_output_file'
p32
S'lensedCls.dat'
p33
sS'accuracy_boost'
p34
I3
sS'recfast_heswitch'
p35
I6
sS'pivot_scalar'
p36
cnumpy.core.multiarray
_reconstruct
p37
(castropy.units.quantity
Quantity
p38
(I0
tS'b'
tRp39
((I1
(tcnumpy
dtype
p40
(S'f8'
I0
I1
tRp41
(I3
S'<'
NNNI-1
I-1
I0
tbI00
S'\xfc\xa9\xf1\xd2Mb`?'
t(dp42
S'_unit'
p43
g1
(castropy.units.core
CompositeUnit
p44
g3
NtRp45
(dp46
S'_decomposed_cache'
p47
g1
(g44
g3
NtRp48
(dp49
g47
NsS'_powers'
p50
(lp51
I-1
asS'_scale'
p52
F3.2407792894697555e-23
sS'_hash'
p53
NsS'_bases'
p54
(lp55
castropy.units.core
_recreate_irreducible_unit
p56
(castropy.units.core
IrreducibleUnit
p57
(lp58
Vm
aVmeter
p59
aI01
tRp60
(dp61
S'_format'
p62
(dp63
sS'_short_names'
p64
(lp65
Vm
asS'_names'
p66
(lp67
Vm
ag59
asS'__doc__'
p68
Vmeter: base unit of length in SI
p69
sS'_long_names'
p70
(lp71
g59
asbasbsg50
(lp72
I-1
asg52
F1
sg53
Nsg54
(lp73
g1
(castropy.units.core
PrefixUnit
p74
g3
NtRp75
(dp76
g62
(dp77
sg64
(lp78
VMpc
p79
asg66
(lp80
g79
aVmegaparsec
p81
asS'_represents'
p82
g1
(g44
g3
NtRp83
(dp84
g47
g1
(g44
g3
NtRp85
(dp86
g47
Nsg50
(lp87
I1
asg52
F3.0856775814671917e+22
sg53
Nsg54
(lp88
g60
asbsg50
(lp89
I1
asg52
F1000000
sg53
I5922263298416514872
sg54
(lp90
g1
(castropy.units.core
Unit
p91
g3
NtRp92
(dp93
g62
(dp94
sg64
(lp95
Vpc
p96
asg66
(lp97
g96
aVparsec
p98
asg82
g1
(g44
g3
NtRp99
(dp100
g47
g99
sg50
(lp101
I1
asg52
F30856775814671916
sg53
I-1459738009292166718
sg54
(lp102
g60
asbsg68
Vparsec: approximately 3.26 light-years.
p103
sg70
(lp104
g98
asbasbsg68
Vmegaparsec (Mpc)
p105
sg70
(lp106
g81
asbasbstbsS'vector_mode'
p107
I0
sS'pivot_tensor'
p108
g37
(g38
(I0
tS'b'
tRp109
((I1
(tg41
I00
S'\xfc\xa9\xf1\xd2Mb`?'
t(dp110
g43
g1
(g44
g3
NtRp111
(dp112
g47
g1
(g44
g3
NtRp113
(dp114
g47
Nsg50
(lp115
I-1
asg52
F3.2407792894697555e-23
sg53
Nsg54
(lp116
g60
asbsg50
(lp117
I-1
asg52
F1
sg53
Nsg54
(lp118
g75
asbstbsS're_ionization_frac'
p119
I-1
sS'l_max_scalar'
p120
I8000
sS'get_scalar_cls'
p121
I01
sS'lensed_total_output_file'
p122
S'lensedtotCls.dat'
p123
sS'k_eta_max_tensor'
p124
I3000
sS'recfast_fudge'
p125
F1.1399999999999999
sS're_delta_redshift'
p126
F0.5
sS'get_vector_cls'
p127
I00
sS'get_transfer'
p128
I01
sS'initial_condition'
p129
I1
sS'tensor_output_file'
p130
S'tensCls.dat'
p131
sS'cmb_outputscale'
p132
F7431100000000
sS'accurate_polarization'
p133
I01
sS'feedback_level'
p134
I1
sS'share_delta_neff'
p135
I01
sS'transfer_power_var'
p136
I7
sS'initial_vector'
p137
g37
(cnumpy
ndarray
p138
(I0
tS'b'
tRp139
(I1
(I5
tg40
(S'i8'
I0
I1
tRp140
(I3
S'<'
NNNI-1
I-1
I0
tbI00
S'\xff\xff\xff\xff\xff\xff\xff\xff\x00\x00\x00\x00\x00\x00\x00\x00\x00\x00\x00\x00\x00\x00\x00\x00\x00\x00\x00\x00\x00\x00\x00\x00\x00\x00\x00\x00\x00\x00\x00\x00'
tbsS'transfer_interp_matterpower'
p141
I01
sS'get_tensor_cls'
p142
I00
sS'lensing_method'
p143
I1
sS'use_physical'
p144
I01
sS'accurate_bb'
p145
I01
sS'l_max_tensor'
p146
I1500
sS'vector_output_file'
p147
S'vecCls.dat'
p148
sS'do_late_rad_truncation'
p149
I00
sS'number_of_threads'
p150
I0
sS'do_lensing'
p151
I00
sb.